target datalayout = "e-m:e-p270:32:32-p271:32:32-p272:64:64-i64:64-i128:128-f80:128-n8:16:32:64-S128"
target triple = "x86_64-pc-linux-gnu"

%"class.std::__cxx11::basic_string" = type { %"struct.std::__cxx11::basic_string<char>::_Alloc_hider", i64, %union.anon }
%"struct.std::__cxx11::basic_string<char>::_Alloc_hider" = type { ptr }
%union.anon = type { i64, [8 x i8] }
%"struct.std::__detail::_Hash_node_base" = type { ptr }
%"struct.std::__detail::_Prime_rehash_policy" = type { float, i64 }
%"class.std::__shared_count" = type { ptr }
%"class.duckdb::ParquetEncryptionConfig" = type { ptr, %"class.std::__cxx11::basic_string", %"class.std::unordered_map.57" }
%"class.std::unordered_map.57" = type { %"class.std::_Hashtable.58" }
%"class.std::_Hashtable.58" = type { ptr, i64, %"struct.std::__detail::_Hash_node_base", i64, %"struct.std::__detail::_Prime_rehash_policy", ptr }
%"class.duckdb::shared_ptr.71" = type { %"class.std::shared_ptr.72" }
%"class.std::shared_ptr.72" = type { %"class.std::__shared_ptr.73" }
%"class.std::__shared_ptr.73" = type { ptr, %"class.std::__shared_count" }
%"class.std::_Sp_counted_base" = type { ptr, i32, i32 }
%"class.std::_Sp_counted_ptr" = type { %"class.std::_Sp_counted_base", ptr }

@.str.8 = private unnamed_addr constant [11 x i8] c"footer_key\00", align 1
@.str.9 = private unnamed_addr constant [12 x i8] c"column_keys\00", align 1

; Function Attrs: mustprogress nounwind uwtable
define linkonce_odr void @_ZNSt16_Sp_counted_baseILN9__gnu_cxx12_Lock_policyE2EEC2Ev(ptr noundef nonnull align 8 dereferenceable(16) %0) unnamed_addr #10 comdat align 2 {
  %2 = alloca ptr, align 8
  store ptr %0, ptr %2, align 8, !tbaa !214
  %3 = load ptr, ptr %2, align 8
  store ptr getelementptr inbounds inrange(-16, 40) ({ [7 x ptr] }, ptr @_ZTVSt16_Sp_counted_baseILN9__gnu_cxx12_Lock_policyE2EE, i32 0, i32 0, i32 2), ptr %3, align 8, !tbaa !90
  %4 = getelementptr inbounds nuw %"class.std::_Sp_counted_base", ptr %3, i32 0, i32 1
  store i32 1, ptr %4, align 8, !tbaa !219
  %5 = getelementptr inbounds nuw %"class.std::_Sp_counted_base", ptr %3, i32 0, i32 2
  store i32 1, ptr %5, align 4, !tbaa !221
  ret void
}

; Function Attrs: mustprogress nounwind uwtable
define linkonce_odr void @_ZNSt15_Sp_counted_ptrIPN6duckdb23ParquetEncryptionConfigELN9__gnu_cxx12_Lock_policyE2EEC2ES2_(ptr noundef nonnull align 8 dereferenceable(24) %0, ptr noundef %1) unnamed_addr #10 comdat align 2 {
  %3 = alloca ptr, align 8
  %4 = alloca ptr, align 8
  store ptr %0, ptr %3, align 8, !tbaa !432
  store ptr %1, ptr %4, align 8, !tbaa !113
  %5 = load ptr, ptr %3, align 8
  call void @_ZNSt16_Sp_counted_baseILN9__gnu_cxx12_Lock_policyE2EEC2Ev(ptr noundef nonnull align 8 dereferenceable(16) %5) #3
  store ptr getelementptr inbounds inrange(-16, 40) ({ [7 x ptr] }, ptr @_ZTVSt15_Sp_counted_ptrIPN6duckdb23ParquetEncryptionConfigELN9__gnu_cxx12_Lock_policyE2EE, i32 0, i32 0, i32 2), ptr %5, align 8, !tbaa !90
  %6 = getelementptr inbounds nuw %"class.std::_Sp_counted_ptr", ptr %5, i32 0, i32 1
  %7 = load ptr, ptr %4, align 8, !tbaa !113
  store ptr %7, ptr %6, align 8, !tbaa !434
  ret void
}

; Function Attrs: mustprogress uwtable
define linkonce_odr void @_ZNSt14__shared_countILN9__gnu_cxx12_Lock_policyE2EEC2IPN6duckdb23ParquetEncryptionConfigEEET_(ptr noundef nonnull align 8 dereferenceable(8) %0, ptr noundef %1) unnamed_addr #4 comdat align 2 personality ptr @__gxx_personality_v0 {
  %3 = alloca ptr, align 8
  %4 = alloca ptr, align 8
  %5 = alloca ptr, align 8
  %6 = alloca i32, align 4
  store ptr %0, ptr %3, align 8, !tbaa !211
  store ptr %1, ptr %4, align 8, !tbaa !113
  %7 = load ptr, ptr %3, align 8
  %8 = getelementptr inbounds nuw %"class.std::__shared_count", ptr %7, i32 0, i32 0
  store ptr null, ptr %8, align 8, !tbaa !213
  %9 = invoke noalias noundef nonnull ptr @_Znwm(i64 noundef 24) #20
          to label %10 unwind label %13

10:                                               ; preds = %2
  %11 = load ptr, ptr %4, align 8, !tbaa !113
  call void @_ZNSt15_Sp_counted_ptrIPN6duckdb23ParquetEncryptionConfigELN9__gnu_cxx12_Lock_policyE2EEC2ES2_(ptr noundef nonnull align 8 dereferenceable(24) %9, ptr noundef %11) #3
  %12 = getelementptr inbounds nuw %"class.std::__shared_count", ptr %7, i32 0, i32 0
  store ptr %9, ptr %12, align 8, !tbaa !213
  br label %29

13:                                               ; preds = %2
  %14 = landingpad { ptr, i32 }
          catch ptr null
  %15 = extractvalue { ptr, i32 } %14, 0
  store ptr %15, ptr %5, align 8
  %16 = extractvalue { ptr, i32 } %14, 1
  store i32 %16, ptr %6, align 4
  br label %17

17:                                               ; preds = %13
  %18 = load ptr, ptr %5, align 8
  %19 = call ptr @__cxa_begin_catch(ptr %18) #3
  %20 = load ptr, ptr %4, align 8, !tbaa !113
  %21 = icmp eq ptr %20, null
  br i1 %21, label %23, label %22

22:                                               ; preds = %17
  call void @_ZN6duckdb23ParquetEncryptionConfigD2Ev(ptr noundef nonnull align 8 dereferenceable(96) %20) #3
  call void @_ZdlPv(ptr noundef %20) #21
  br label %23

23:                                               ; preds = %22, %17
  invoke void @__cxa_rethrow() #23
          to label %38 unwind label %24

24:                                               ; preds = %23
  %25 = landingpad { ptr, i32 }
          cleanup
  %26 = extractvalue { ptr, i32 } %25, 0
  store ptr %26, ptr %5, align 8
  %27 = extractvalue { ptr, i32 } %25, 1
  store i32 %27, ptr %6, align 4
  invoke void @__cxa_end_catch()
          to label %28 unwind label %35

28:                                               ; preds = %24
  br label %30

29:                                               ; preds = %10
  ret void

30:                                               ; preds = %28
  %31 = load ptr, ptr %5, align 8
  %32 = load i32, ptr %6, align 4
  %33 = insertvalue { ptr, i32 } poison, ptr %31, 0
  %34 = insertvalue { ptr, i32 } %33, i32 %32, 1
  resume { ptr, i32 } %34

35:                                               ; preds = %24
  %36 = landingpad { ptr, i32 }
          catch ptr null
  %37 = extractvalue { ptr, i32 } %36, 0
  call void @__clang_call_terminate(ptr %37) #22
  unreachable

38:                                               ; preds = %23
  unreachable
}

; Function Attrs: mustprogress nounwind uwtable
define linkonce_odr void @_ZNSt12__shared_ptrIN6duckdb23ParquetEncryptionConfigELN9__gnu_cxx12_Lock_policyE2EE31_M_enable_shared_from_this_withIS1_S1_EENSt9enable_ifIXntsr15__has_esft_baseIT0_EE5valueEvE4typeEPT_(ptr noundef nonnull align 8 dereferenceable(16) %0, ptr noundef %1) #10 comdat align 2 {
  %3 = alloca ptr, align 8
  %4 = alloca ptr, align 8
  store ptr %0, ptr %3, align 8, !tbaa !209
  store ptr %1, ptr %4, align 8, !tbaa !113
  ret void
}

; Function Attrs: mustprogress uwtable
define linkonce_odr void @_ZNSt14__shared_countILN9__gnu_cxx12_Lock_policyE2EEC2IPN6duckdb23ParquetEncryptionConfigEEET_St17integral_constantIbLb0EE(ptr noundef nonnull align 8 dereferenceable(8) %0, ptr noundef %1) unnamed_addr #4 comdat align 2 {
  %3 = alloca ptr, align 8
  %4 = alloca ptr, align 8
  store ptr %0, ptr %3, align 8, !tbaa !211
  store ptr %1, ptr %4, align 8, !tbaa !113
  %5 = load ptr, ptr %3, align 8
  %6 = load ptr, ptr %4, align 8, !tbaa !113
  call void @_ZNSt14__shared_countILN9__gnu_cxx12_Lock_policyE2EEC2IPN6duckdb23ParquetEncryptionConfigEEET_(ptr noundef nonnull align 8 dereferenceable(8) %5, ptr noundef %6)
  ret void
}

; Function Attrs: mustprogress uwtable
define linkonce_odr void @_ZNSt12__shared_ptrIN6duckdb23ParquetEncryptionConfigELN9__gnu_cxx12_Lock_policyE2EEC2IS1_vEEPT_(ptr noundef nonnull align 8 dereferenceable(16) %0, ptr noundef %1) unnamed_addr #4 comdat align 2 {
  %3 = alloca ptr, align 8
  %4 = alloca ptr, align 8
  store ptr %0, ptr %3, align 8, !tbaa !209
  store ptr %1, ptr %4, align 8, !tbaa !113
  %5 = load ptr, ptr %3, align 8
  %6 = getelementptr inbounds nuw %"class.std::__shared_ptr.73", ptr %5, i32 0, i32 0
  %7 = load ptr, ptr %4, align 8, !tbaa !113
  store ptr %7, ptr %6, align 8, !tbaa !230
  %8 = getelementptr inbounds nuw %"class.std::__shared_ptr.73", ptr %5, i32 0, i32 1
  %9 = load ptr, ptr %4, align 8, !tbaa !113
  call void @_ZNSt14__shared_countILN9__gnu_cxx12_Lock_policyE2EEC2IPN6duckdb23ParquetEncryptionConfigEEET_St17integral_constantIbLb0EE(ptr noundef nonnull align 8 dereferenceable(8) %8, ptr noundef %9)
  %10 = load ptr, ptr %4, align 8, !tbaa !113
  call void @_ZNSt12__shared_ptrIN6duckdb23ParquetEncryptionConfigELN9__gnu_cxx12_Lock_policyE2EE31_M_enable_shared_from_this_withIS1_S1_EENSt9enable_ifIXntsr15__has_esft_baseIT0_EE5valueEvE4typeEPT_(ptr noundef nonnull align 8 dereferenceable(16) %5, ptr noundef %10) #3
  ret void
}

; Function Attrs: mustprogress nounwind uwtable
define linkonce_odr void @_ZN6duckdb10shared_ptrINS_23ParquetEncryptionConfigELb1EE18__enable_weak_thisEz(ptr noundef nonnull align 8 dereferenceable(16) %0, ...) #10 comdat align 2 {
  %2 = alloca ptr, align 8
  store ptr %0, ptr %2, align 8, !tbaa !117
  ret void
}

; Function Attrs: mustprogress nounwind uwtable
define linkonce_odr noundef ptr @_ZNKSt12__shared_ptrIN6duckdb23ParquetEncryptionConfigELN9__gnu_cxx12_Lock_policyE2EE3getEv(ptr noundef nonnull align 8 dereferenceable(16) %0) #10 comdat align 2 {
  %2 = alloca ptr, align 8
  store ptr %0, ptr %2, align 8, !tbaa !209
  %3 = load ptr, ptr %2, align 8
  %4 = getelementptr inbounds nuw %"class.std::__shared_ptr.73", ptr %3, i32 0, i32 0
  %5 = load ptr, ptr %4, align 8, !tbaa !230
  ret ptr %5
}

; Function Attrs: mustprogress uwtable
define linkonce_odr void @_ZNSt10shared_ptrIN6duckdb23ParquetEncryptionConfigEEC2IS1_vEEPT_(ptr noundef nonnull align 8 dereferenceable(16) %0, ptr noundef %1) unnamed_addr #4 comdat align 2 {
  %3 = alloca ptr, align 8
  %4 = alloca ptr, align 8
  store ptr %0, ptr %3, align 8, !tbaa !228
  store ptr %1, ptr %4, align 8, !tbaa !113
  %5 = load ptr, ptr %3, align 8
  %6 = load ptr, ptr %4, align 8, !tbaa !113
  call void @_ZNSt12__shared_ptrIN6duckdb23ParquetEncryptionConfigELN9__gnu_cxx12_Lock_policyE2EEC2IS1_vEEPT_(ptr noundef nonnull align 8 dereferenceable(16) %5, ptr noundef %6)
  ret void
}

; Function Attrs: mustprogress uwtable
define linkonce_odr void @_ZN6duckdb10shared_ptrINS_23ParquetEncryptionConfigELb1EEC2IS1_TnNSt9enable_ifIXsr17compatible_with_tIT_S1_EE5valueEiE4typeELi0EEEPS5_(ptr noundef nonnull align 8 dereferenceable(16) %0, ptr noundef %1) unnamed_addr #4 comdat align 2 {
  %3 = alloca ptr, align 8
  %4 = alloca ptr, align 8
  store ptr %0, ptr %3, align 8, !tbaa !117
  store ptr %1, ptr %4, align 8, !tbaa !113
  %5 = load ptr, ptr %3, align 8
  %6 = getelementptr inbounds nuw %"class.duckdb::shared_ptr.71", ptr %5, i32 0, i32 0
  %7 = load ptr, ptr %4, align 8, !tbaa !113
  call void @_ZNSt10shared_ptrIN6duckdb23ParquetEncryptionConfigEEC2IS1_vEEPT_(ptr noundef nonnull align 8 dereferenceable(16) %6, ptr noundef %7)
  %8 = getelementptr inbounds nuw %"class.duckdb::shared_ptr.71", ptr %5, i32 0, i32 0
  %9 = call noundef ptr @_ZNKSt12__shared_ptrIN6duckdb23ParquetEncryptionConfigELN9__gnu_cxx12_Lock_policyE2EE3getEv(ptr noundef nonnull align 8 dereferenceable(16) %8) #3
  %10 = getelementptr inbounds nuw %"class.duckdb::shared_ptr.71", ptr %5, i32 0, i32 0
  %11 = call noundef ptr @_ZNKSt12__shared_ptrIN6duckdb23ParquetEncryptionConfigELN9__gnu_cxx12_Lock_policyE2EE3getEv(ptr noundef nonnull align 8 dereferenceable(16) %10) #3
  call void (ptr, ...) @_ZN6duckdb10shared_ptrINS_23ParquetEncryptionConfigELb1EE18__enable_weak_thisEz(ptr noundef nonnull align 8 dereferenceable(16) %5, ptr noundef %9, ptr noundef %11) #3
  ret void
}

; Function Attrs: mustprogress uwtable
define void @_ZN6duckdb23ParquetEncryptionConfig11DeserializeERNS_12DeserializerE(ptr dead_on_unwind noalias writable sret(%"class.duckdb::shared_ptr.71") align 8 %0, ptr noundef nonnull align 8 dereferenceable(632) %1) #4 align 2 personality ptr @__gxx_personality_v0 {
  %3 = alloca ptr, align 8
  %4 = alloca ptr, align 8
  %5 = alloca i1, align 1
  %6 = alloca ptr, align 8
  %7 = alloca i32, align 4
  store ptr %0, ptr %3, align 8
  store ptr %1, ptr %4, align 8, !tbaa !94
  store i1 false, ptr %5, align 1
  %8 = call noalias noundef nonnull ptr @_Znwm(i64 noundef 96) #20
  %9 = load ptr, ptr %4, align 8, !tbaa !94
  %10 = invoke noundef nonnull align 8 dereferenceable(648) ptr @_ZN6duckdb12Deserializer3GetIRNS_13ClientContextEEET_v(ptr noundef nonnull align 8 dereferenceable(632) %9)
          to label %11 unwind label %24

11:                                               ; preds = %2
  invoke void @_ZN6duckdb23ParquetEncryptionConfigC1ERNS_13ClientContextE(ptr noundef nonnull align 8 dereferenceable(96) %8, ptr noundef nonnull align 8 dereferenceable(648) %10)
          to label %12 unwind label %24

12:                                               ; preds = %11
  call void @_ZN6duckdb10shared_ptrINS_23ParquetEncryptionConfigELb1EEC2IS1_TnNSt9enable_ifIXsr17compatible_with_tIT_S1_EE5valueEiE4typeELi0EEEPS5_(ptr noundef nonnull align 8 dereferenceable(16) %0, ptr noundef %8)
  %13 = load ptr, ptr %4, align 8, !tbaa !94
  %14 = invoke noundef ptr @_ZNK6duckdb10shared_ptrINS_23ParquetEncryptionConfigELb1EEptEv(ptr noundef nonnull align 8 dereferenceable(16) %0)
          to label %15 unwind label %28

15:                                               ; preds = %12
  %16 = getelementptr inbounds nuw %"class.duckdb::ParquetEncryptionConfig", ptr %14, i32 0, i32 1
  invoke void @_ZN6duckdb12Deserializer23ReadPropertyWithDefaultINSt7__cxx1112basic_stringIcSt11char_traitsIcESaIcEEEEEvtPKcRT_(ptr noundef nonnull align 8 dereferenceable(632) %13, i16 noundef zeroext 100, ptr noundef @.str.8, ptr noundef nonnull align 8 dereferenceable(32) %16)
          to label %17 unwind label %28

17:                                               ; preds = %15
  %18 = load ptr, ptr %4, align 8, !tbaa !94
  %19 = invoke noundef ptr @_ZNK6duckdb10shared_ptrINS_23ParquetEncryptionConfigELb1EEptEv(ptr noundef nonnull align 8 dereferenceable(16) %0)
          to label %20 unwind label %28

20:                                               ; preds = %17
  %21 = getelementptr inbounds nuw %"class.duckdb::ParquetEncryptionConfig", ptr %19, i32 0, i32 2
  invoke void @_ZN6duckdb12Deserializer23ReadPropertyWithDefaultISt13unordered_mapINSt7__cxx1112basic_stringIcSt11char_traitsIcESaIcEEES8_St4hashIS8_ESt8equal_toIS8_ESaISt4pairIKS8_S8_EEEEEvtPKcRT_(ptr noundef nonnull align 8 dereferenceable(632) %18, i16 noundef zeroext 101, ptr noundef @.str.9, ptr noundef nonnull align 8 dereferenceable(56) %21)
          to label %22 unwind label %28

22:                                               ; preds = %20
  store i1 true, ptr %5, align 1
  %23 = load i1, ptr %5, align 1
  br i1 %23, label %33, label %32

24:                                               ; preds = %11, %2
  %25 = landingpad { ptr, i32 }
          cleanup
  %26 = extractvalue { ptr, i32 } %25, 0
  store ptr %26, ptr %6, align 8
  %27 = extractvalue { ptr, i32 } %25, 1
  store i32 %27, ptr %7, align 4
  call void @_ZdlPv(ptr noundef %8) #21
  br label %34

28:                                               ; preds = %20, %17, %15, %12
  %29 = landingpad { ptr, i32 }
          cleanup
  %30 = extractvalue { ptr, i32 } %29, 0
  store ptr %30, ptr %6, align 8
  %31 = extractvalue { ptr, i32 } %29, 1
  store i32 %31, ptr %7, align 4
  call void @_ZN6duckdb10shared_ptrINS_23ParquetEncryptionConfigELb1EED2Ev(ptr noundef nonnull align 8 dereferenceable(16) %0) #3
  br label %34

32:                                               ; preds = %22
  call void @_ZN6duckdb10shared_ptrINS_23ParquetEncryptionConfigELb1EED2Ev(ptr noundef nonnull align 8 dereferenceable(16) %0) #3
  br label %33

33:                                               ; preds = %32, %22
  ret void

34:                                               ; preds = %28, %24
  %35 = load ptr, ptr %6, align 8
  %36 = load i32, ptr %7, align 4
  %37 = insertvalue { ptr, i32 } poison, ptr %35, 0
  %38 = insertvalue { ptr, i32 } %37, i32 %36, 1
  resume { ptr, i32 } %38
}