; Function Attrs: mustprogress uwtable
define void @_ZN6duckdb23ParquetEncryptionConfig11DeserializeERNS_12DeserializerE(ptr dead_on_unwind noalias writable sret(%"class.duckdb::shared_ptr.71") align 8 %0, ptr noundef nonnull align 8 dereferenceable(632) %1) local_unnamed_addr #3 align 2 personality ptr @__gxx_personality_v0 {
  %3 = tail call noalias noundef nonnull dereferenceable(96) ptr @_Znwm(i64 noundef 96) #26
  %4 = invoke noundef nonnull align 8 dereferenceable(648) ptr @_ZN6duckdb12Deserializer3GetIRNS_13ClientContextEEET_v(ptr noundef nonnull align 8 dereferenceable(632) %1)
          to label %5 unwind label %29

5:                                                ; preds = %2
  invoke void @_ZN6duckdb23ParquetEncryptionConfigC1ERNS_13ClientContextE(ptr noundef nonnull align 8 dereferenceable(96) %3, ptr noundef nonnull align 8 dereferenceable(648) %4)
          to label %6 unwind label %29

6:                                                ; preds = %5
  store ptr %3, ptr %0, align 8, !tbaa !139
  %7 = getelementptr inbounds nuw i8, ptr %0, i64 8
  store ptr null, ptr %7, align 8, !tbaa !121
  %8 = invoke noalias noundef nonnull dereferenceable(24) ptr @_Znwm(i64 noundef 24) #26
          to label %_ZNSt14__shared_countILN9__gnu_cxx12_Lock_policyE2EEC2IPN6duckdb23ParquetEncryptionConfigEEET_.exit unwind label %9

9:                                                ; preds = %6
  %10 = landingpad { ptr, i32 }
          catch ptr null
  %11 = extractvalue { ptr, i32 } %10, 0
  %12 = tail call ptr @__cxa_begin_catch(ptr %11) #22
  tail call void @_ZN6duckdb23ParquetEncryptionConfigD2Ev(ptr noundef nonnull align 8 dereferenceable(96) %3) #22
  tail call void @_ZdlPv(ptr noundef nonnull %3) #24
  invoke void @__cxa_rethrow() #23
          to label %18 unwind label %13

13:                                               ; preds = %9
  %14 = landingpad { ptr, i32 }
          cleanup
  invoke void @__cxa_end_catch()
          to label %common.resume unwind label %15

common.resume:                                    ; preds = %29, %31, %13
  %common.resume.op = phi { ptr, i32 } [ %14, %13 ], [ %32, %31 ], [ %30, %29 ]
  resume { ptr, i32 } %common.resume.op

15:                                               ; preds = %13
  %16 = landingpad { ptr, i32 }
          catch ptr null
  %17 = extractvalue { ptr, i32 } %16, 0
  tail call void @__clang_call_terminate(ptr %17) #25
  unreachable

18:                                               ; preds = %9
  unreachable

_ZNSt14__shared_countILN9__gnu_cxx12_Lock_policyE2EEC2IPN6duckdb23ParquetEncryptionConfigEEET_.exit: ; preds = %6
  %19 = getelementptr inbounds nuw i8, ptr %8, i64 8
  store i32 1, ptr %19, align 8, !tbaa !142
  %20 = getelementptr inbounds nuw i8, ptr %8, i64 12
  store i32 1, ptr %20, align 4, !tbaa !144
  store ptr getelementptr inbounds nuw inrange(-16, 40) (i8, ptr @_ZTVSt15_Sp_counted_ptrIPN6duckdb23ParquetEncryptionConfigELN9__gnu_cxx12_Lock_policyE2EE, i64 16), ptr %8, align 8, !tbaa !83
  %21 = getelementptr inbounds nuw i8, ptr %8, i64 16
  store ptr %3, ptr %21, align 8, !tbaa !145
  store ptr %8, ptr %7, align 8, !tbaa !121
  %22 = invoke noundef ptr @_ZNK6duckdb10shared_ptrINS_23ParquetEncryptionConfigELb1EEptEv(ptr noundef nonnull align 8 dereferenceable(16) %0)
          to label %23 unwind label %31

23:                                               ; preds = %_ZNSt14__shared_countILN9__gnu_cxx12_Lock_policyE2EEC2IPN6duckdb23ParquetEncryptionConfigEEET_.exit
  %24 = getelementptr inbounds nuw i8, ptr %22, i64 8
  invoke void @_ZN6duckdb12Deserializer23ReadPropertyWithDefaultINSt7__cxx1112basic_stringIcSt11char_traitsIcESaIcEEEEEvtPKcRT_(ptr noundef nonnull align 8 dereferenceable(632) %1, i16 noundef zeroext 100, ptr noundef nonnull @.str.8, ptr noundef nonnull align 8 dereferenceable(32) %24)
          to label %25 unwind label %31

25:                                               ; preds = %23
  %26 = invoke noundef ptr @_ZNK6duckdb10shared_ptrINS_23ParquetEncryptionConfigELb1EEptEv(ptr noundef nonnull align 8 dereferenceable(16) %0)
          to label %27 unwind label %31

27:                                               ; preds = %25
  %28 = getelementptr inbounds nuw i8, ptr %26, i64 40
  invoke void @_ZN6duckdb12Deserializer23ReadPropertyWithDefaultISt13unordered_mapINSt7__cxx1112basic_stringIcSt11char_traitsIcESaIcEEES8_St4hashIS8_ESt8equal_toIS8_ESaISt4pairIKS8_S8_EEEEEvtPKcRT_(ptr noundef nonnull align 8 dereferenceable(632) %1, i16 noundef zeroext 101, ptr noundef nonnull @.str.9, ptr noundef nonnull align 8 dereferenceable(56) %28)
          to label %33 unwind label %31

29:                                               ; preds = %5, %2
  %30 = landingpad { ptr, i32 }
          cleanup
  tail call void @_ZdlPv(ptr noundef nonnull %3) #24
  br label %common.resume

31:                                               ; preds = %27, %25, %23, %_ZNSt14__shared_countILN9__gnu_cxx12_Lock_policyE2EEC2IPN6duckdb23ParquetEncryptionConfigEEET_.exit
  %32 = landingpad { ptr, i32 }
          cleanup
  tail call void @_ZN6duckdb10shared_ptrINS_23ParquetEncryptionConfigELb1EED2Ev(ptr noundef nonnull align 8 dereferenceable(16) %0) #22
  br label %common.resume

33:                                               ; preds = %27
  ret void
}